target datalayout = "e-m:e-p270:32:32-p271:32:32-p272:64:64-i64:64-i128:128-f80:128-n8:16:32:64-S128"
target triple = "x86_64-pc-linux-gnu"

@ett_treelist = internal global [81 x i32] zeroinitializer, align 16
@.str.1067 = private unnamed_addr constant [37 x i8] c"Resource ReserVation Protocol (RSVP)\00", align 1
@.str.1068 = private unnamed_addr constant [5 x i8] c"RSVP\00", align 1
@.str.1069 = private unnamed_addr constant [5 x i8] c"rsvp\00", align 1
@proto_rsvp = internal global i32 0, align 4
@.str.1070 = private unnamed_addr constant [42 x i8] c"Resource ReserVation Protocol (RSVP-E2EI)\00", align 1
@.str.1071 = private unnamed_addr constant [10 x i8] c"RSVP-E2EI\00", align 1
@.str.1072 = private unnamed_addr constant [10 x i8] c"rsvp-e2ei\00", align 1
@proto_rsvp_e2e1 = internal global i32 0, align 4
@rsvp_handle = internal global ptr null, align 8
@.str.1073 = private unnamed_addr constant [10 x i8] c"rsvp_e2ei\00", align 1
@rsvpe2ei_handle = internal global ptr null, align 8
@rsvp_request_hash = internal global ptr null, align 8
@rsvp_tap = internal global i32 0, align 4
@rsvp_bundle_dissect = internal global i8 1, align 1
@rsvp_generalized_label_option = internal global i32 1, align 4
@.str.1980 = private unnamed_addr constant [15 x i8] c"process_bundle\00", align 1
@.str.1981 = private unnamed_addr constant [39 x i8] c"Dissect sub-messages in BUNDLE message\00", align 1
@.str.1982 = private unnamed_addr constant [90 x i8] c"Specifies whether Wireshark should decode and display sub-messages within BUNDLE messages\00", align 1
@.str.1983 = private unnamed_addr constant [26 x i8] c"generalized_label_options\00", align 1
@.str.1984 = private unnamed_addr constant [30 x i8] c"Dissect generalized labels as\00", align 1
@.str.1985 = private unnamed_addr constant [58 x i8] c"Specifies how Wireshark should dissect generalized labels\00", align 1

; Function Attrs: null_pointer_is_valid sspstrong uwtable
define internal void @register_rsvp_prefs() #1 {
  %1 = alloca ptr, align 8
  call void @llvm.lifetime.start.p0(i64 8, ptr %1) #14
  %2 = load i32, ptr @proto_rsvp, align 4
  %3 = call ptr @prefs_register_protocol(i32 noundef %2, ptr noundef null)
  store ptr %3, ptr %1, align 8
  %4 = load ptr, ptr %1, align 8
  call void @prefs_register_bool_preference(ptr noundef %4, ptr noundef @.str.1980, ptr noundef @.str.1981, ptr noundef @.str.1982, ptr noundef @rsvp_bundle_dissect)
  %5 = load ptr, ptr %1, align 8
  call void @prefs_register_enum_preference(ptr noundef %5, ptr noundef @.str.1983, ptr noundef @.str.1984, ptr noundef @.str.1985, ptr noundef @rsvp_generalized_label_option, ptr noundef @rsvp_generalized_label_options, i1 noundef zeroext false)
  call void @llvm.lifetime.end.p0(i64 8, ptr %1) #14
  ret void
}

; Function Attrs: null_pointer_is_valid sspstrong uwtable
define hidden void @proto_register_rsvp() #1 {
  %1 = alloca i32, align 4
  %2 = alloca ptr, align 8
  %3 = alloca [81 x ptr], align 16
  call void @llvm.lifetime.start.p0(i64 4, ptr %1) #14
  call void @llvm.lifetime.start.p0(i64 8, ptr %2) #14
  call void @llvm.lifetime.start.p0(i64 648, ptr %3) #14
  store i32 0, ptr %1, align 4
  br label %4

4:                                                ; preds = %14, %0
  %5 = load i32, ptr %1, align 4
  %6 = icmp slt i32 %5, 81
  br i1 %6, label %7, label %17

7:                                                ; preds = %4
  %8 = load i32, ptr %1, align 4
  %9 = sext i32 %8 to i64
  %10 = getelementptr [81 x i32], ptr @ett_treelist, i64 0, i64 %9
  %11 = load i32, ptr %1, align 4
  %12 = sext i32 %11 to i64
  %13 = getelementptr [81 x ptr], ptr %3, i64 0, i64 %12
  store ptr %10, ptr %13, align 8
  br label %14

14:                                               ; preds = %7
  %15 = load i32, ptr %1, align 4
  %16 = add i32 %15, 1
  store i32 %16, ptr %1, align 4
  br label %4, !llvm.loop !6

17:                                               ; preds = %4
  %18 = call i32 @proto_register_protocol(ptr noundef @.str.1067, ptr noundef @.str.1068, ptr noundef @.str.1069)
  store i32 %18, ptr @proto_rsvp, align 4
  %19 = load i32, ptr @proto_rsvp, align 4
  %20 = call i32 @proto_register_protocol_in_name_only(ptr noundef @.str.1070, ptr noundef @.str.1071, ptr noundef @.str.1072, i32 noundef %19, i32 noundef 1)
  store i32 %20, ptr @proto_rsvp_e2e1, align 4
  %21 = load i32, ptr @proto_rsvp, align 4
  %22 = call ptr @register_dissector(ptr noundef @.str.1069, ptr noundef @dissect_rsvp, i32 noundef %21)
  store ptr %22, ptr @rsvp_handle, align 8
  %23 = load i32, ptr @proto_rsvp_e2e1, align 4
  %24 = call ptr @register_dissector(ptr noundef @.str.1073, ptr noundef @dissect_rsvp_e2ei, i32 noundef %23)
  store ptr %24, ptr @rsvpe2ei_handle, align 8
  %25 = load i32, ptr @proto_rsvp, align 4
  call void @proto_register_field_array(i32 noundef %25, ptr noundef @proto_register_rsvp.rsvpf_info, i32 noundef 614)
  %26 = getelementptr inbounds [81 x ptr], ptr %3, i64 0, i64 0
  call void @proto_register_subtree_array(ptr noundef %26, i32 noundef 81)
  %27 = load i32, ptr @proto_rsvp, align 4
  %28 = call ptr @expert_register_protocol(i32 noundef %27)
  store ptr %28, ptr %2, align 8
  %29 = load ptr, ptr %2, align 8
  call void @expert_register_field_array(ptr noundef %29, ptr noundef @proto_register_rsvp.ei, i32 noundef 7)
  call void @register_rsvp_prefs()
  %30 = call ptr @wmem_epan_scope()
  %31 = call ptr @wmem_file_scope()
  %32 = call noalias ptr @wmem_map_new_autoreset(ptr noundef %30, ptr noundef %31, ptr noundef @rsvp_hash, ptr noundef @rsvp_equal)
  store ptr %32, ptr @rsvp_request_hash, align 8
  %33 = load i32, ptr @proto_rsvp, align 4
  call void @register_conversation_table(i32 noundef %33, i1 noundef zeroext true, ptr noundef @rsvp_conversation_packet, ptr noundef @rsvp_endpoint_packet)
  %34 = call i32 @register_tap(ptr noundef @.str.1069)
  store i32 %34, ptr @rsvp_tap, align 4
  call void @llvm.lifetime.end.p0(i64 648, ptr %3) #14
  call void @llvm.lifetime.end.p0(i64 8, ptr %2) #14
  call void @llvm.lifetime.end.p0(i64 4, ptr %1) #14
  ret void
}