; Function Attrs: null_pointer_is_valid sspstrong uwtable
define hidden void @proto_register_rsvp() local_unnamed_addr #1 {
  %1 = alloca [81 x ptr], align 16
  call void @llvm.lifetime.start.p0(i64 648, ptr nonnull %1) #12
  br label %2

2:                                                ; preds = %0, %2
  %indvars.iv = phi i64 [ 0, %0 ], [ %indvars.iv.next, %2 ]
  %3 = getelementptr [81 x i32], ptr @ett_treelist, i64 0, i64 %indvars.iv
  %4 = getelementptr [81 x ptr], ptr %1, i64 0, i64 %indvars.iv
  store ptr %3, ptr %4, align 8
  %indvars.iv.next = add nuw nsw i64 %indvars.iv, 1
  %exitcond.not = icmp eq i64 %indvars.iv.next, 81
  br i1 %exitcond.not, label %5, label %2, !llvm.loop !6

5:                                                ; preds = %2
  %6 = tail call i32 @proto_register_protocol(ptr noundef nonnull @.str.1067, ptr noundef nonnull @.str.1068, ptr noundef nonnull @.str.1069)
  store i32 %6, ptr @proto_rsvp, align 4
  %7 = tail call i32 @proto_register_protocol_in_name_only(ptr noundef nonnull @.str.1070, ptr noundef nonnull @.str.1071, ptr noundef nonnull @.str.1072, i32 noundef %6, i32 noundef 1)
  store i32 %7, ptr @proto_rsvp_e2e1, align 4
  %8 = load i32, ptr @proto_rsvp, align 4
  %9 = tail call ptr @register_dissector(ptr noundef nonnull @.str.1069, ptr noundef nonnull @dissect_rsvp, i32 noundef %8)
  store ptr %9, ptr @rsvp_handle, align 8
  %10 = load i32, ptr @proto_rsvp_e2e1, align 4
  %11 = tail call ptr @register_dissector(ptr noundef nonnull @.str.1073, ptr noundef nonnull @dissect_rsvp_e2ei, i32 noundef %10)
  store ptr %11, ptr @rsvpe2ei_handle, align 8
  %12 = load i32, ptr @proto_rsvp, align 4
  tail call void @proto_register_field_array(i32 noundef %12, ptr noundef nonnull @proto_register_rsvp.rsvpf_info, i32 noundef 614)
  call void @proto_register_subtree_array(ptr noundef nonnull %1, i32 noundef 81)
  %13 = load i32, ptr @proto_rsvp, align 4
  %14 = call ptr @expert_register_protocol(i32 noundef %13)
  call void @expert_register_field_array(ptr noundef %14, ptr noundef nonnull @proto_register_rsvp.ei, i32 noundef 7)
  %15 = load i32, ptr @proto_rsvp, align 4
  %16 = call ptr @prefs_register_protocol(i32 noundef %15, ptr noundef null)
  call void @prefs_register_bool_preference(ptr noundef %16, ptr noundef nonnull @.str.1980, ptr noundef nonnull @.str.1981, ptr noundef nonnull @.str.1982, ptr noundef nonnull @rsvp_bundle_dissect)
  call void @prefs_register_enum_preference(ptr noundef %16, ptr noundef nonnull @.str.1983, ptr noundef nonnull @.str.1984, ptr noundef nonnull @.str.1985, ptr noundef nonnull @rsvp_generalized_label_option, ptr noundef nonnull @rsvp_generalized_label_options, i1 noundef zeroext false)
  %17 = call ptr @wmem_epan_scope()
  %18 = call ptr @wmem_file_scope()
  %19 = call noalias ptr @wmem_map_new_autoreset(ptr noundef %17, ptr noundef %18, ptr noundef nonnull @rsvp_hash, ptr noundef nonnull @rsvp_equal)
  store ptr %19, ptr @rsvp_request_hash, align 8
  %20 = load i32, ptr @proto_rsvp, align 4
  call void @register_conversation_table(i32 noundef %20, i1 noundef zeroext true, ptr noundef nonnull @rsvp_conversation_packet, ptr noundef nonnull @rsvp_endpoint_packet)
  %21 = call i32 @register_tap(ptr noundef nonnull @.str.1069)
  store i32 %21, ptr @rsvp_tap, align 4
  call void @llvm.lifetime.end.p0(i64 648, ptr nonnull %1) #12
  ret void
}